target datalayout = "e-m:e-p270:32:32-p271:32:32-p272:64:64-i64:64-i128:128-f80:128-n8:16:32:64-S128"
target triple = "x86_64-pc-linux-gnu"

%struct.Node = type { i32 }
%struct.FormData_pg_attribute = type { i32, %struct.nameData, i32, i16, i16, i32, i16, i8, i8, i8, i8, i8, i8, i8, i8, i8, i8, i8, i16, i32 }
%struct.nameData = type { [64 x i8] }
%struct.RelationData = type { %struct.RelFileLocator, ptr, i32, i32, i8, i8, i8, i8, i8, i32, i32, i32, i32, ptr, ptr, i32, %struct.LockInfoData, ptr, ptr, ptr, ptr, ptr, i8, ptr, ptr, ptr, ptr, ptr, ptr, i32, ptr, i8, ptr, ptr, i32, i8, i32, ptr, i8, ptr, ptr, ptr, ptr, ptr, ptr, ptr, i32, ptr, ptr, ptr, ptr, ptr, ptr, ptr, ptr, ptr, ptr, ptr, ptr, ptr, ptr, ptr, ptr, ptr, ptr, ptr, i32, i8, ptr }
%struct.RelFileLocator = type { i32, i32, i32 }
%struct.LockInfoData = type { %struct.LockRelId }
%struct.LockRelId = type { i32, i32 }
%struct.TupleDescData = type { i32, i32, i32, i32, ptr, [0 x %struct.CompactAttribute] }
%struct.CompactAttribute = type { i32, i16, i8, i8, i8, i8, i8, i8, i8 }
%struct.TupleConstr = type { ptr, ptr, ptr, i16, i16, i8, i8, i8 }
%struct.Expr = type { i32 }
%struct.NullTest = type { %struct.Expr, ptr, i32, i8, i32 }

; Function Attrs: inlinehint nounwind uwtable
define internal ptr @newNode(i64 noundef %0, i32 noundef %1) #6 {
  %3 = alloca i64, align 8
  %4 = alloca i32, align 4
  %5 = alloca ptr, align 8
  store i64 %0, ptr %3, align 8
  store i32 %1, ptr %4, align 4
  call void @llvm.lifetime.start.p0(i64 8, ptr %5) #12
  %6 = load i64, ptr %3, align 8
  %7 = call ptr @palloc0(i64 noundef %6)
  store ptr %7, ptr %5, align 8
  %8 = load i32, ptr %4, align 4
  %9 = load ptr, ptr %5, align 8
  %10 = getelementptr inbounds nuw %struct.Node, ptr %9, i32 0, i32 0
  store i32 %8, ptr %10, align 4
  %11 = load ptr, ptr %5, align 8
  call void @llvm.lifetime.end.p0(i64 8, ptr %5) #12
  ret ptr %11
}

; Function Attrs: inlinehint nounwind uwtable
define internal ptr @TupleDescAttr(ptr noundef %0, i32 noundef %1) #6 {
  %3 = alloca ptr, align 8
  %4 = alloca i32, align 4
  %5 = alloca ptr, align 8
  store ptr %0, ptr %3, align 8
  store i32 %1, ptr %4, align 4
  call void @llvm.lifetime.start.p0(i64 8, ptr %5) #12
  %6 = load ptr, ptr %3, align 8
  %7 = load ptr, ptr %3, align 8
  %8 = getelementptr inbounds nuw %struct.TupleDescData, ptr %7, i32 0, i32 0
  %9 = load i32, ptr %8, align 8
  %10 = sext i32 %9 to i64
  %11 = mul i64 %10, 16
  %12 = add i64 24, %11
  %13 = getelementptr inbounds nuw i8, ptr %6, i64 %12
  store ptr %13, ptr %5, align 8
  %14 = load ptr, ptr %5, align 8
  %15 = load i32, ptr %4, align 4
  %16 = sext i32 %15 to i64
  %17 = getelementptr inbounds %struct.FormData_pg_attribute, ptr %14, i64 %16
  call void @llvm.lifetime.end.p0(i64 8, ptr %5) #12
  ret ptr %17
}

; Function Attrs: nounwind uwtable
define dso_local zeroext i1 @PartConstraintImpliedByRelConstraint(ptr noundef %0, ptr noundef %1) #0 {
  %3 = alloca ptr, align 8
  %4 = alloca ptr, align 8
  %5 = alloca ptr, align 8
  %6 = alloca ptr, align 8
  %7 = alloca i32, align 4
  %8 = alloca i32, align 4
  %9 = alloca ptr, align 8
  %10 = alloca ptr, align 8
  store ptr %0, ptr %3, align 8
  store ptr %1, ptr %4, align 8
  call void @llvm.lifetime.start.p0(i64 8, ptr %5) #12
  store ptr null, ptr %5, align 8
  call void @llvm.lifetime.start.p0(i64 8, ptr %6) #12
  %11 = load ptr, ptr %3, align 8
  %12 = getelementptr inbounds nuw %struct.RelationData, ptr %11, i32 0, i32 14
  %13 = load ptr, ptr %12, align 8
  %14 = getelementptr inbounds nuw %struct.TupleDescData, ptr %13, i32 0, i32 4
  %15 = load ptr, ptr %14, align 8
  store ptr %15, ptr %6, align 8
  call void @llvm.lifetime.start.p0(i64 4, ptr %7) #12
  %16 = load ptr, ptr %6, align 8
  %17 = icmp ne ptr %16, null
  br i1 %17, label %18, label %79

18:                                               ; preds = %2
  %19 = load ptr, ptr %6, align 8
  %20 = getelementptr inbounds nuw %struct.TupleConstr, ptr %19, i32 0, i32 5
  %21 = load i8, ptr %20, align 4, !range !6, !noundef !7
  %22 = trunc i8 %21 to i1
  br i1 %22, label %23, label %79

23:                                               ; preds = %18
  call void @llvm.lifetime.start.p0(i64 4, ptr %8) #12
  %24 = load ptr, ptr %3, align 8
  %25 = getelementptr inbounds nuw %struct.RelationData, ptr %24, i32 0, i32 14
  %26 = load ptr, ptr %25, align 8
  %27 = getelementptr inbounds nuw %struct.TupleDescData, ptr %26, i32 0, i32 0
  %28 = load i32, ptr %27, align 8
  store i32 %28, ptr %8, align 4
  store i32 1, ptr %7, align 4
  br label %29

29:                                               ; preds = %75, %23
  %30 = load i32, ptr %7, align 4
  %31 = load i32, ptr %8, align 4
  %32 = icmp sle i32 %30, %31
  br i1 %32, label %33, label %78

33:                                               ; preds = %29
  call void @llvm.lifetime.start.p0(i64 8, ptr %9) #12
  %34 = load ptr, ptr %3, align 8
  %35 = getelementptr inbounds nuw %struct.RelationData, ptr %34, i32 0, i32 14
  %36 = load ptr, ptr %35, align 8
  %37 = load i32, ptr %7, align 4
  %38 = sub i32 %37, 1
  %39 = call ptr @TupleDescAttr(ptr noundef %36, i32 noundef %38)
  store ptr %39, ptr %9, align 8
  %40 = load ptr, ptr %9, align 8
  %41 = getelementptr inbounds nuw %struct.FormData_pg_attribute, ptr %40, i32 0, i32 11
  %42 = load i8, ptr %41, align 2, !range !6, !noundef !7
  %43 = trunc i8 %42 to i1
  br i1 %43, label %44, label %74

44:                                               ; preds = %33
  %45 = load ptr, ptr %9, align 8
  %46 = getelementptr inbounds nuw %struct.FormData_pg_attribute, ptr %45, i32 0, i32 16
  %47 = load i8, ptr %46, align 1, !range !6, !noundef !7
  %48 = trunc i8 %47 to i1
  br i1 %48, label %74, label %49

49:                                               ; preds = %44
  call void @llvm.lifetime.start.p0(i64 8, ptr %10) #12
  %50 = call ptr @newNode(i64 noundef 32, i32 noundef 52)
  store ptr %50, ptr %10, align 8
  %51 = load i32, ptr %7, align 4
  %52 = trunc i32 %51 to i16
  %53 = load ptr, ptr %9, align 8
  %54 = getelementptr inbounds nuw %struct.FormData_pg_attribute, ptr %53, i32 0, i32 2
  %55 = load i32, ptr %54, align 4
  %56 = load ptr, ptr %9, align 8
  %57 = getelementptr inbounds nuw %struct.FormData_pg_attribute, ptr %56, i32 0, i32 5
  %58 = load i32, ptr %57, align 4
  %59 = load ptr, ptr %9, align 8
  %60 = getelementptr inbounds nuw %struct.FormData_pg_attribute, ptr %59, i32 0, i32 19
  %61 = load i32, ptr %60, align 4
  %62 = call ptr @makeVar(i32 noundef 1, i16 noundef signext %52, i32 noundef %55, i32 noundef %58, i32 noundef %61, i32 noundef 0)
  %63 = load ptr, ptr %10, align 8
  %64 = getelementptr inbounds nuw %struct.NullTest, ptr %63, i32 0, i32 1
  store ptr %62, ptr %64, align 8
  %65 = load ptr, ptr %10, align 8
  %66 = getelementptr inbounds nuw %struct.NullTest, ptr %65, i32 0, i32 2
  store i32 1, ptr %66, align 8
  %67 = load ptr, ptr %10, align 8
  %68 = getelementptr inbounds nuw %struct.NullTest, ptr %67, i32 0, i32 3
  store i8 0, ptr %68, align 4
  %69 = load ptr, ptr %10, align 8
  %70 = getelementptr inbounds nuw %struct.NullTest, ptr %69, i32 0, i32 4
  store i32 -1, ptr %70, align 8
  %71 = load ptr, ptr %5, align 8
  %72 = load ptr, ptr %10, align 8
  %73 = call ptr @lappend(ptr noundef %71, ptr noundef %72)
  store ptr %73, ptr %5, align 8
  call void @llvm.lifetime.end.p0(i64 8, ptr %10) #12
  br label %74

74:                                               ; preds = %49, %44, %33
  call void @llvm.lifetime.end.p0(i64 8, ptr %9) #12
  br label %75

75:                                               ; preds = %74
  %76 = load i32, ptr %7, align 4
  %77 = add i32 %76, 1
  store i32 %77, ptr %7, align 4
  br label %29, !llvm.loop !71

78:                                               ; preds = %29
  call void @llvm.lifetime.end.p0(i64 4, ptr %8) #12
  br label %79

79:                                               ; preds = %78, %18, %2
  %80 = load ptr, ptr %3, align 8
  %81 = load ptr, ptr %4, align 8
  %82 = load ptr, ptr %5, align 8
  %83 = call zeroext i1 @ConstraintImpliedByRelConstraint(ptr noundef %80, ptr noundef %81, ptr noundef %82)
  call void @llvm.lifetime.end.p0(i64 4, ptr %7) #12
  call void @llvm.lifetime.end.p0(i64 8, ptr %6) #12
  call void @llvm.lifetime.end.p0(i64 8, ptr %5) #12
  ret i1 %83
}