; Function Attrs: nounwind uwtable
define dso_local zeroext i1 @PartConstraintImpliedByRelConstraint(ptr noundef readonly captures(none) %0, ptr noundef %1) local_unnamed_addr #0 {
  %3 = getelementptr inbounds nuw i8, ptr %0, i64 64
  %4 = load ptr, ptr %3, align 8
  %5 = getelementptr inbounds nuw i8, ptr %4, i64 16
  %6 = load ptr, ptr %5, align 8
  %.not = icmp eq ptr %6, null
  br i1 %.not, label %.loopexit, label %7

7:                                                ; preds = %2
  %8 = getelementptr inbounds nuw i8, ptr %6, i64 28
  %9 = load i8, ptr %8, align 4, !range !6, !noundef !7
  %10 = trunc nuw i8 %9 to i1
  br i1 %10, label %11, label %.loopexit

11:                                               ; preds = %7
  %12 = load i32, ptr %4, align 8
  %.not2526 = icmp slt i32 %12, 1
  br i1 %.not2526, label %.loopexit, label %.lr.ph

.lr.ph:                                           ; preds = %11, %44
  %.128 = phi ptr [ %.2, %44 ], [ null, %11 ]
  %.02327 = phi i32 [ %45, %44 ], [ 1, %11 ]
  %13 = load ptr, ptr %3, align 8
  %14 = add i32 %.02327, -1
  %15 = load i32, ptr %13, align 8
  %16 = sext i32 %15 to i64
  %17 = shl nsw i64 %16, 4
  %18 = getelementptr i8, ptr %13, i64 %17
  %19 = getelementptr i8, ptr %18, i64 24
  %20 = sext i32 %14 to i64
  %21 = getelementptr inbounds %struct.FormData_pg_attribute, ptr %19, i64 %20
  %22 = getelementptr inbounds nuw i8, ptr %21, i64 86
  %23 = load i8, ptr %22, align 2, !range !6, !noundef !7
  %24 = trunc nuw i8 %23 to i1
  br i1 %24, label %25, label %44

25:                                               ; preds = %.lr.ph
  %26 = getelementptr inbounds nuw i8, ptr %21, i64 91
  %27 = load i8, ptr %26, align 1, !range !6, !noundef !7
  %28 = trunc nuw i8 %27 to i1
  br i1 %28, label %44, label %29

29:                                               ; preds = %25
  %30 = tail call noundef ptr @palloc0(i64 noundef 32) #15
  store i32 52, ptr %30, align 4
  %31 = trunc i32 %.02327 to i16
  %32 = getelementptr inbounds nuw i8, ptr %21, i64 68
  %33 = load i32, ptr %32, align 4
  %34 = getelementptr inbounds nuw i8, ptr %21, i64 76
  %35 = load i32, ptr %34, align 4
  %36 = getelementptr inbounds nuw i8, ptr %21, i64 96
  %37 = load i32, ptr %36, align 4
  %38 = tail call ptr @makeVar(i32 noundef 1, i16 noundef signext %31, i32 noundef %33, i32 noundef %35, i32 noundef %37, i32 noundef 0) #15
  %39 = getelementptr inbounds nuw i8, ptr %30, i64 8
  store ptr %38, ptr %39, align 8
  %40 = getelementptr inbounds nuw i8, ptr %30, i64 16
  store i32 1, ptr %40, align 8
  %41 = getelementptr inbounds nuw i8, ptr %30, i64 20
  store i8 0, ptr %41, align 4
  %42 = getelementptr inbounds nuw i8, ptr %30, i64 24
  store i32 -1, ptr %42, align 8
  %43 = tail call ptr @lappend(ptr noundef %.128, ptr noundef nonnull %30) #15
  br label %44

44:                                               ; preds = %29, %25, %.lr.ph
  %.2 = phi ptr [ %.128, %25 ], [ %43, %29 ], [ %.128, %.lr.ph ]
  %45 = add i32 %.02327, 1
  %.not25 = icmp sgt i32 %45, %12
  br i1 %.not25, label %.loopexit, label %.lr.ph, !llvm.loop !47

.loopexit:                                        ; preds = %44, %11, %7, %2
  %.0 = phi ptr [ null, %7 ], [ null, %2 ], [ null, %11 ], [ %.2, %44 ]
  %46 = tail call fastcc zeroext i1 @ConstraintImpliedByRelConstraint(ptr noundef nonnull %0, ptr noundef %1, ptr noundef %.0)
  ret i1 %46
}